target datalayout = "e-m:e-p270:32:32-p271:32:32-p272:64:64-i64:64-i128:128-f80:128-n8:16:32:64-S128"
target triple = "x86_64-pc-linux-gnu"

%struct.RClass_and_rb_classext_t = type { %struct.RClass, %struct.rb_classext_struct }
%struct.RClass = type { %struct.RBasic, i64, ptr }
%struct.RBasic = type { i64, i64 }
%struct.rb_classext_struct = type { ptr, ptr, ptr, ptr, ptr, i64, ptr, ptr, ptr, ptr, i64, i64, %union.anon, i64, i32, i8, i8, i64 }
%union.anon = type { %struct.anon }
%struct.anon = type { ptr }

@ruby_current_ec = external thread_local global ptr, align 8

; Function Attrs: inlinehint nounwind sspstrong uwtable
define internal void @set_shape_id_in_flags(i64 noundef %0, i32 noundef %1) #2 {
  %3 = alloca i64, align 8
  %4 = alloca i32, align 4
  store i64 %0, ptr %3, align 8, !tbaa !11
  store i32 %1, ptr %4, align 4, !tbaa !7
  %5 = load i64, ptr %3, align 8, !tbaa !11
  %6 = inttoptr i64 %5 to ptr
  %7 = getelementptr inbounds nuw %struct.RBasic, ptr %6, i32 0, i32 0
  %8 = load i64, ptr %7, align 8, !tbaa !28
  %9 = and i64 %8, 4294967295
  store i64 %9, ptr %7, align 8, !tbaa !28
  %10 = load i32, ptr %4, align 4, !tbaa !7
  %11 = zext i32 %10 to i64
  %12 = shl i64 %11, 32
  %13 = load i64, ptr %3, align 8, !tbaa !11
  %14 = inttoptr i64 %13 to ptr
  %15 = getelementptr inbounds nuw %struct.RBasic, ptr %14, i32 0, i32 0
  %16 = load i64, ptr %15, align 8, !tbaa !28
  %17 = or i64 %16, %12
  store i64 %17, ptr %15, align 8, !tbaa !28
  ret void
}

; Function Attrs: inlinehint nounwind sspstrong uwtable
define internal void @ROBJECT_SET_SHAPE_ID(i64 noundef %0, i32 noundef %1) #2 {
  %3 = alloca i64, align 8
  %4 = alloca i32, align 4
  store i64 %0, ptr %3, align 8, !tbaa !11
  store i32 %1, ptr %4, align 4, !tbaa !7
  %5 = load i64, ptr %3, align 8, !tbaa !11
  %6 = load i32, ptr %4, align 4, !tbaa !7
  call void @set_shape_id_in_flags(i64 noundef %5, i32 noundef %6)
  ret void
}

; Function Attrs: inlinehint nounwind sspstrong uwtable
define internal ptr @rb_current_execution_context(i1 noundef zeroext %0) #2 {
  %2 = alloca i8, align 1
  %3 = alloca ptr, align 8
  %4 = zext i1 %0 to i8
  store i8 %4, ptr %2, align 1, !tbaa !25
  call void @llvm.lifetime.start.p0(i64 8, ptr %3) #28
  %5 = call align 8 ptr @llvm.threadlocal.address.p0(ptr align 8 @ruby_current_ec)
  %6 = load ptr, ptr %5, align 8, !tbaa !26
  store ptr %6, ptr %3, align 8, !tbaa !26
  %7 = load ptr, ptr %3, align 8, !tbaa !26
  call void @llvm.lifetime.end.p0(i64 8, ptr %3) #28
  ret ptr %7
}

; Function Attrs: nounwind sspstrong uwtable
define hidden i64 @rb_obj_embedded_size(i32 noundef %0) #0 {
  %2 = alloca i32, align 4
  store i32 %0, ptr %2, align 4, !tbaa !7
  %3 = load i32, ptr %2, align 4, !tbaa !7
  %4 = zext i32 %3 to i64
  %5 = mul i64 8, %4
  %6 = add i64 16, %5
  ret i64 %6
}

; Function Attrs: nounwind sspstrong uwtable
define hidden i64 @rb_class_allocate_instance(i64 noundef %0) #0 {
  %2 = alloca i64, align 8
  %3 = alloca i32, align 4
  %4 = alloca i64, align 8
  %5 = alloca ptr, align 8
  %6 = alloca i64, align 8
  store i64 %0, ptr %2, align 8, !tbaa !11
  call void @llvm.lifetime.start.p0(i64 4, ptr %3) #28
  %7 = load i64, ptr %2, align 8, !tbaa !11
  %8 = inttoptr i64 %7 to ptr
  %9 = getelementptr inbounds nuw %struct.RClass_and_rb_classext_t, ptr %8, i32 0, i32 1
  %10 = getelementptr inbounds nuw %struct.rb_classext_struct, ptr %9, i32 0, i32 14
  %11 = load i32, ptr %10, align 8, !tbaa !13
  store i32 %11, ptr %3, align 4, !tbaa !7
  call void @llvm.lifetime.start.p0(i64 8, ptr %4) #28
  %12 = load i32, ptr %3, align 4, !tbaa !7
  %13 = call i64 @rb_obj_embedded_size(i32 noundef %12)
  store i64 %13, ptr %4, align 8, !tbaa !11
  %14 = load i64, ptr %4, align 8, !tbaa !11
  %15 = call zeroext i1 @rb_gc_size_allocatable_p(i64 noundef %14)
  br i1 %15, label %17, label %16

16:                                               ; preds = %1
  store i64 24, ptr %4, align 8, !tbaa !11
  br label %17

17:                                               ; preds = %16, %1
  call void @llvm.lifetime.start.p0(i64 8, ptr %5) #28
  %18 = call ptr @rb_current_execution_context(i1 noundef zeroext true)
  %19 = load i64, ptr %2, align 8, !tbaa !11
  %20 = load i64, ptr %4, align 8, !tbaa !11
  %21 = call i64 @rb_wb_protected_newobj_of(ptr noundef %18, i64 noundef %19, i64 noundef 8193, i64 noundef %20)
  %22 = inttoptr i64 %21 to ptr
  store ptr %22, ptr %5, align 8, !tbaa !23
  call void @llvm.lifetime.start.p0(i64 8, ptr %6) #28
  %23 = load ptr, ptr %5, align 8, !tbaa !23
  %24 = ptrtoint ptr %23 to i64
  store i64 %24, ptr %6, align 8, !tbaa !11
  %25 = load i64, ptr %6, align 8, !tbaa !11
  %26 = load i64, ptr %4, align 8, !tbaa !11
  %27 = call i64 @rb_gc_heap_id_for_size(i64 noundef %26)
  %28 = add i64 %27, 3
  %29 = trunc i64 %28 to i32
  call void @ROBJECT_SET_SHAPE_ID(i64 noundef %25, i32 noundef %29)
  %30 = load i64, ptr %6, align 8, !tbaa !11
  call void @llvm.lifetime.end.p0(i64 8, ptr %6) #28
  call void @llvm.lifetime.end.p0(i64 8, ptr %5) #28
  call void @llvm.lifetime.end.p0(i64 8, ptr %4) #28
  call void @llvm.lifetime.end.p0(i64 4, ptr %3) #28
  ret i64 %30
}