; Function Attrs: nounwind sspstrong uwtable
define hidden i64 @rb_class_allocate_instance(i64 noundef %0) #2 {
  %2 = inttoptr i64 %0 to ptr
  %3 = getelementptr inbounds nuw i8, ptr %2, i64 144
  %4 = load i32, ptr %3, align 8, !tbaa !11
  %5 = zext i32 %4 to i64
  %6 = shl nuw nsw i64 %5, 3
  %7 = add nuw nsw i64 %6, 16
  %8 = tail call zeroext i1 @rb_gc_size_allocatable_p(i64 noundef %7) #23
  %spec.select = select i1 %8, i64 %7, i64 24
  %9 = tail call align 8 ptr @llvm.threadlocal.address.p0(ptr align 8 @ruby_current_ec)
  %10 = load ptr, ptr %9, align 8, !tbaa !22
  %11 = tail call i64 @rb_wb_protected_newobj_of(ptr noundef %10, i64 noundef %0, i64 noundef 8193, i64 noundef %spec.select) #23
  %12 = tail call i64 @rb_gc_heap_id_for_size(i64 noundef %spec.select) #23
  %13 = inttoptr i64 %11 to ptr
  %14 = load i64, ptr %13, align 8, !tbaa !24
  %15 = and i64 %14, 4294967295
  %16 = shl i64 %12, 32
  %17 = add i64 %16, 12884901888
  %18 = or disjoint i64 %15, %17
  store i64 %18, ptr %13, align 8, !tbaa !24
  ret i64 %11
}